target datalayout = "e-m:e-p270:32:32-p271:32:32-p272:64:64-i64:64-i128:128-f80:128-n8:16:32:64-S128"
target triple = "x86_64-pc-linux-gnu"

%struct.lean_object = type { i32, i32 }

; Function Attrs: alwaysinline nounwind uwtable
define internal void @lean_dec_ref(ptr noundef %0) #1 {
  %2 = alloca ptr, align 8
  store ptr %0, ptr %2, align 8, !tbaa !8
  %3 = load ptr, ptr %2, align 8, !tbaa !8
  %4 = getelementptr inbounds nuw %struct.lean_object, ptr %3, i32 0, i32 0
  %5 = load i32, ptr %4, align 4, !tbaa !15
  %6 = icmp sgt i32 %5, 1
  %7 = zext i1 %6 to i32
  %8 = sext i32 %7 to i64
  %9 = call i64 @llvm.expect.i64(i64 %8, i64 1)
  %10 = icmp ne i64 %9, 0
  br i1 %10, label %11, label %16

11:                                               ; preds = %1
  %12 = load ptr, ptr %2, align 8, !tbaa !8
  %13 = getelementptr inbounds nuw %struct.lean_object, ptr %12, i32 0, i32 0
  %14 = load i32, ptr %13, align 4, !tbaa !15
  %15 = add i32 %14, -1
  store i32 %15, ptr %13, align 4, !tbaa !15
  br label %24

16:                                               ; preds = %1
  %17 = load ptr, ptr %2, align 8, !tbaa !8
  %18 = getelementptr inbounds nuw %struct.lean_object, ptr %17, i32 0, i32 0
  %19 = load i32, ptr %18, align 4, !tbaa !15
  %20 = icmp ne i32 %19, 0
  br i1 %20, label %21, label %23

21:                                               ; preds = %16
  %22 = load ptr, ptr %2, align 8, !tbaa !8
  call void @lean_dec_ref_cold(ptr noundef %22)
  br label %23

23:                                               ; preds = %21, %16
  br label %24

24:                                               ; preds = %23, %11
  ret void
}

; Function Attrs: alwaysinline nounwind uwtable
define internal zeroext i1 @lean_is_scalar(ptr noundef %0) #1 {
  %2 = alloca ptr, align 8
  store ptr %0, ptr %2, align 8, !tbaa !8
  %3 = load ptr, ptr %2, align 8, !tbaa !8
  %4 = ptrtoint ptr %3 to i64
  %5 = and i64 %4, 1
  %6 = icmp eq i64 %5, 1
  ret i1 %6
}

; Function Attrs: alwaysinline nounwind uwtable
define internal void @lean_dec(ptr noundef %0) #1 {
  %2 = alloca ptr, align 8
  store ptr %0, ptr %2, align 8, !tbaa !8
  %3 = load ptr, ptr %2, align 8, !tbaa !8
  %4 = call zeroext i1 @lean_is_scalar(ptr noundef %3)
  br i1 %4, label %7, label %5

5:                                                ; preds = %1
  %6 = load ptr, ptr %2, align 8, !tbaa !8
  call void @lean_dec_ref(ptr noundef %6)
  br label %7

7:                                                ; preds = %5, %1
  ret void
}

; Function Attrs: inlinehint nounwind uwtable
define internal i64 @lean_unbox(ptr noundef %0) #0 {
  %2 = alloca ptr, align 8
  store ptr %0, ptr %2, align 8, !tbaa !8
  %3 = load ptr, ptr %2, align 8, !tbaa !8
  %4 = ptrtoint ptr %3 to i64
  %5 = lshr i64 %4, 1
  ret i64 %5
}

; Function Attrs: nounwind uwtable
define ptr @l_Std_Range_forIn_x27_loop___at_Lean_Elab_Deriving_BEq_mkMatch_mkAlts___spec__6___lambda__1___boxed(ptr noundef %0) #2 {
  %2 = alloca ptr, align 8
  %3 = alloca ptr, align 8
  %4 = alloca ptr, align 8
  %5 = alloca ptr, align 8
  %6 = alloca ptr, align 8
  %7 = alloca ptr, align 8
  %8 = alloca ptr, align 8
  %9 = alloca ptr, align 8
  %10 = alloca ptr, align 8
  %11 = alloca ptr, align 8
  %12 = alloca ptr, align 8
  %13 = alloca ptr, align 8
  %14 = alloca ptr, align 8
  %15 = alloca ptr, align 8
  %16 = alloca ptr, align 8
  %17 = alloca ptr, align 8
  %18 = alloca ptr, align 8
  %19 = alloca ptr, align 8
  %20 = alloca ptr, align 8
  %21 = alloca ptr, align 8
  %22 = alloca ptr, align 8
  %23 = alloca ptr, align 8
  %24 = alloca ptr, align 8
  %25 = alloca i8, align 1
  %26 = alloca ptr, align 8
  store ptr %0, ptr %2, align 8, !tbaa !10
  call void @llvm.lifetime.start.p0(i64 8, ptr %3) #7
  %27 = load ptr, ptr %2, align 8, !tbaa !10
  %28 = getelementptr inbounds ptr, ptr %27, i64 0
  %29 = load ptr, ptr %28, align 8, !tbaa !8
  store ptr %29, ptr %3, align 8, !tbaa !8
  call void @llvm.lifetime.start.p0(i64 8, ptr %4) #7
  %30 = load ptr, ptr %2, align 8, !tbaa !10
  %31 = getelementptr inbounds ptr, ptr %30, i64 1
  %32 = load ptr, ptr %31, align 8, !tbaa !8
  store ptr %32, ptr %4, align 8, !tbaa !8
  call void @llvm.lifetime.start.p0(i64 8, ptr %5) #7
  %33 = load ptr, ptr %2, align 8, !tbaa !10
  %34 = getelementptr inbounds ptr, ptr %33, i64 2
  %35 = load ptr, ptr %34, align 8, !tbaa !8
  store ptr %35, ptr %5, align 8, !tbaa !8
  call void @llvm.lifetime.start.p0(i64 8, ptr %6) #7
  %36 = load ptr, ptr %2, align 8, !tbaa !10
  %37 = getelementptr inbounds ptr, ptr %36, i64 3
  %38 = load ptr, ptr %37, align 8, !tbaa !8
  store ptr %38, ptr %6, align 8, !tbaa !8
  call void @llvm.lifetime.start.p0(i64 8, ptr %7) #7
  %39 = load ptr, ptr %2, align 8, !tbaa !10
  %40 = getelementptr inbounds ptr, ptr %39, i64 4
  %41 = load ptr, ptr %40, align 8, !tbaa !8
  store ptr %41, ptr %7, align 8, !tbaa !8
  call void @llvm.lifetime.start.p0(i64 8, ptr %8) #7
  %42 = load ptr, ptr %2, align 8, !tbaa !10
  %43 = getelementptr inbounds ptr, ptr %42, i64 5
  %44 = load ptr, ptr %43, align 8, !tbaa !8
  store ptr %44, ptr %8, align 8, !tbaa !8
  call void @llvm.lifetime.start.p0(i64 8, ptr %9) #7
  %45 = load ptr, ptr %2, align 8, !tbaa !10
  %46 = getelementptr inbounds ptr, ptr %45, i64 6
  %47 = load ptr, ptr %46, align 8, !tbaa !8
  store ptr %47, ptr %9, align 8, !tbaa !8
  call void @llvm.lifetime.start.p0(i64 8, ptr %10) #7
  %48 = load ptr, ptr %2, align 8, !tbaa !10
  %49 = getelementptr inbounds ptr, ptr %48, i64 7
  %50 = load ptr, ptr %49, align 8, !tbaa !8
  store ptr %50, ptr %10, align 8, !tbaa !8
  call void @llvm.lifetime.start.p0(i64 8, ptr %11) #7
  %51 = load ptr, ptr %2, align 8, !tbaa !10
  %52 = getelementptr inbounds ptr, ptr %51, i64 8
  %53 = load ptr, ptr %52, align 8, !tbaa !8
  store ptr %53, ptr %11, align 8, !tbaa !8
  call void @llvm.lifetime.start.p0(i64 8, ptr %12) #7
  %54 = load ptr, ptr %2, align 8, !tbaa !10
  %55 = getelementptr inbounds ptr, ptr %54, i64 9
  %56 = load ptr, ptr %55, align 8, !tbaa !8
  store ptr %56, ptr %12, align 8, !tbaa !8
  call void @llvm.lifetime.start.p0(i64 8, ptr %13) #7
  %57 = load ptr, ptr %2, align 8, !tbaa !10
  %58 = getelementptr inbounds ptr, ptr %57, i64 10
  %59 = load ptr, ptr %58, align 8, !tbaa !8
  store ptr %59, ptr %13, align 8, !tbaa !8
  call void @llvm.lifetime.start.p0(i64 8, ptr %14) #7
  %60 = load ptr, ptr %2, align 8, !tbaa !10
  %61 = getelementptr inbounds ptr, ptr %60, i64 11
  %62 = load ptr, ptr %61, align 8, !tbaa !8
  store ptr %62, ptr %14, align 8, !tbaa !8
  call void @llvm.lifetime.start.p0(i64 8, ptr %15) #7
  %63 = load ptr, ptr %2, align 8, !tbaa !10
  %64 = getelementptr inbounds ptr, ptr %63, i64 12
  %65 = load ptr, ptr %64, align 8, !tbaa !8
  store ptr %65, ptr %15, align 8, !tbaa !8
  call void @llvm.lifetime.start.p0(i64 8, ptr %16) #7
  %66 = load ptr, ptr %2, align 8, !tbaa !10
  %67 = getelementptr inbounds ptr, ptr %66, i64 13
  %68 = load ptr, ptr %67, align 8, !tbaa !8
  store ptr %68, ptr %16, align 8, !tbaa !8
  call void @llvm.lifetime.start.p0(i64 8, ptr %17) #7
  %69 = load ptr, ptr %2, align 8, !tbaa !10
  %70 = getelementptr inbounds ptr, ptr %69, i64 14
  %71 = load ptr, ptr %70, align 8, !tbaa !8
  store ptr %71, ptr %17, align 8, !tbaa !8
  call void @llvm.lifetime.start.p0(i64 8, ptr %18) #7
  %72 = load ptr, ptr %2, align 8, !tbaa !10
  %73 = getelementptr inbounds ptr, ptr %72, i64 15
  %74 = load ptr, ptr %73, align 8, !tbaa !8
  store ptr %74, ptr %18, align 8, !tbaa !8
  call void @llvm.lifetime.start.p0(i64 8, ptr %19) #7
  %75 = load ptr, ptr %2, align 8, !tbaa !10
  %76 = getelementptr inbounds ptr, ptr %75, i64 16
  %77 = load ptr, ptr %76, align 8, !tbaa !8
  store ptr %77, ptr %19, align 8, !tbaa !8
  call void @llvm.lifetime.start.p0(i64 8, ptr %20) #7
  %78 = load ptr, ptr %2, align 8, !tbaa !10
  %79 = getelementptr inbounds ptr, ptr %78, i64 17
  %80 = load ptr, ptr %79, align 8, !tbaa !8
  store ptr %80, ptr %20, align 8, !tbaa !8
  call void @llvm.lifetime.start.p0(i64 8, ptr %21) #7
  %81 = load ptr, ptr %2, align 8, !tbaa !10
  %82 = getelementptr inbounds ptr, ptr %81, i64 18
  %83 = load ptr, ptr %82, align 8, !tbaa !8
  store ptr %83, ptr %21, align 8, !tbaa !8
  call void @llvm.lifetime.start.p0(i64 8, ptr %22) #7
  %84 = load ptr, ptr %2, align 8, !tbaa !10
  %85 = getelementptr inbounds ptr, ptr %84, i64 19
  %86 = load ptr, ptr %85, align 8, !tbaa !8
  store ptr %86, ptr %22, align 8, !tbaa !8
  call void @llvm.lifetime.start.p0(i64 8, ptr %23) #7
  %87 = load ptr, ptr %2, align 8, !tbaa !10
  %88 = getelementptr inbounds ptr, ptr %87, i64 20
  %89 = load ptr, ptr %88, align 8, !tbaa !8
  store ptr %89, ptr %23, align 8, !tbaa !8
  call void @llvm.lifetime.start.p0(i64 8, ptr %24) #7
  %90 = load ptr, ptr %2, align 8, !tbaa !10
  %91 = getelementptr inbounds ptr, ptr %90, i64 21
  %92 = load ptr, ptr %91, align 8, !tbaa !8
  store ptr %92, ptr %24, align 8, !tbaa !8
  br label %93

93:                                               ; preds = %1
  call void @llvm.lifetime.start.p0(i64 1, ptr %25) #7
  call void @llvm.lifetime.start.p0(i64 8, ptr %26) #7
  %94 = load ptr, ptr %16, align 8, !tbaa !8
  %95 = call i64 @lean_unbox(ptr noundef %94)
  %96 = trunc i64 %95 to i8
  store i8 %96, ptr %25, align 1, !tbaa !14
  %97 = load ptr, ptr %16, align 8, !tbaa !8
  call void @lean_dec(ptr noundef %97)
  %98 = load ptr, ptr %3, align 8, !tbaa !8
  %99 = load ptr, ptr %4, align 8, !tbaa !8
  %100 = load ptr, ptr %5, align 8, !tbaa !8
  %101 = load ptr, ptr %6, align 8, !tbaa !8
  %102 = load ptr, ptr %7, align 8, !tbaa !8
  %103 = load ptr, ptr %8, align 8, !tbaa !8
  %104 = load ptr, ptr %9, align 8, !tbaa !8
  %105 = load ptr, ptr %10, align 8, !tbaa !8
  %106 = load ptr, ptr %11, align 8, !tbaa !8
  %107 = load ptr, ptr %12, align 8, !tbaa !8
  %108 = load ptr, ptr %13, align 8, !tbaa !8
  %109 = load ptr, ptr %14, align 8, !tbaa !8
  %110 = load ptr, ptr %15, align 8, !tbaa !8
  %111 = load i8, ptr %25, align 1, !tbaa !14
  %112 = load ptr, ptr %17, align 8, !tbaa !8
  %113 = load ptr, ptr %18, align 8, !tbaa !8
  %114 = load ptr, ptr %19, align 8, !tbaa !8
  %115 = load ptr, ptr %20, align 8, !tbaa !8
  %116 = load ptr, ptr %21, align 8, !tbaa !8
  %117 = load ptr, ptr %22, align 8, !tbaa !8
  %118 = load ptr, ptr %23, align 8, !tbaa !8
  %119 = load ptr, ptr %24, align 8, !tbaa !8
  %120 = call ptr @l_Std_Range_forIn_x27_loop___at_Lean_Elab_Deriving_BEq_mkMatch_mkAlts___spec__6___lambda__1(ptr noundef %98, ptr noundef %99, ptr noundef %100, ptr noundef %101, ptr noundef %102, ptr noundef %103, ptr noundef %104, ptr noundef %105, ptr noundef %106, ptr noundef %107, ptr noundef %108, ptr noundef %109, ptr noundef %110, i8 noundef zeroext %111, ptr noundef %112, ptr noundef %113, ptr noundef %114, ptr noundef %115, ptr noundef %116, ptr noundef %117, ptr noundef %118, ptr noundef %119)
  store ptr %120, ptr %26, align 8, !tbaa !8
  %121 = load ptr, ptr %19, align 8, !tbaa !8
  call void @lean_dec(ptr noundef %121)
  %122 = load ptr, ptr %18, align 8, !tbaa !8
  call void @lean_dec(ptr noundef %122)
  %123 = load ptr, ptr %17, align 8, !tbaa !8
  call void @lean_dec(ptr noundef %123)
  %124 = load ptr, ptr %13, align 8, !tbaa !8
  call void @lean_dec(ptr noundef %124)
  %125 = load ptr, ptr %6, align 8, !tbaa !8
  call void @lean_dec(ptr noundef %125)
  %126 = load ptr, ptr %4, align 8, !tbaa !8
  call void @lean_dec(ptr noundef %126)
  %127 = load ptr, ptr %3, align 8, !tbaa !8
  call void @lean_dec(ptr noundef %127)
  %128 = load ptr, ptr %26, align 8, !tbaa !8
  call void @llvm.lifetime.end.p0(i64 8, ptr %26) #7
  call void @llvm.lifetime.end.p0(i64 1, ptr %25) #7
  call void @llvm.lifetime.end.p0(i64 8, ptr %24) #7
  call void @llvm.lifetime.end.p0(i64 8, ptr %23) #7
  call void @llvm.lifetime.end.p0(i64 8, ptr %22) #7
  call void @llvm.lifetime.end.p0(i64 8, ptr %21) #7
  call void @llvm.lifetime.end.p0(i64 8, ptr %20) #7
  call void @llvm.lifetime.end.p0(i64 8, ptr %19) #7
  call void @llvm.lifetime.end.p0(i64 8, ptr %18) #7
  call void @llvm.lifetime.end.p0(i64 8, ptr %17) #7
  call void @llvm.lifetime.end.p0(i64 8, ptr %16) #7
  call void @llvm.lifetime.end.p0(i64 8, ptr %15) #7
  call void @llvm.lifetime.end.p0(i64 8, ptr %14) #7
  call void @llvm.lifetime.end.p0(i64 8, ptr %13) #7
  call void @llvm.lifetime.end.p0(i64 8, ptr %12) #7
  call void @llvm.lifetime.end.p0(i64 8, ptr %11) #7
  call void @llvm.lifetime.end.p0(i64 8, ptr %10) #7
  call void @llvm.lifetime.end.p0(i64 8, ptr %9) #7
  call void @llvm.lifetime.end.p0(i64 8, ptr %8) #7
  call void @llvm.lifetime.end.p0(i64 8, ptr %7) #7
  call void @llvm.lifetime.end.p0(i64 8, ptr %6) #7
  call void @llvm.lifetime.end.p0(i64 8, ptr %5) #7
  call void @llvm.lifetime.end.p0(i64 8, ptr %4) #7
  call void @llvm.lifetime.end.p0(i64 8, ptr %3) #7
  ret ptr %128
}