; Function Attrs: nounwind uwtable
define ptr @l_Std_Range_forIn_x27_loop___at_Lean_Elab_Deriving_BEq_mkMatch_mkAlts___spec__6___lambda__1___boxed(ptr noundef readonly captures(none) %0) local_unnamed_addr #0 {
  %2 = load ptr, ptr %0, align 8, !tbaa !4
  %3 = getelementptr inbounds nuw i8, ptr %0, i64 8
  %4 = load ptr, ptr %3, align 8, !tbaa !4
  %5 = getelementptr inbounds nuw i8, ptr %0, i64 16
  %6 = load ptr, ptr %5, align 8, !tbaa !4
  %7 = getelementptr inbounds nuw i8, ptr %0, i64 24
  %8 = load ptr, ptr %7, align 8, !tbaa !4
  %9 = getelementptr inbounds nuw i8, ptr %0, i64 32
  %10 = load ptr, ptr %9, align 8, !tbaa !4
  %11 = getelementptr inbounds nuw i8, ptr %0, i64 40
  %12 = load ptr, ptr %11, align 8, !tbaa !4
  %13 = getelementptr inbounds nuw i8, ptr %0, i64 48
  %14 = load ptr, ptr %13, align 8, !tbaa !4
  %15 = getelementptr inbounds nuw i8, ptr %0, i64 56
  %16 = load ptr, ptr %15, align 8, !tbaa !4
  %17 = getelementptr inbounds nuw i8, ptr %0, i64 64
  %18 = load ptr, ptr %17, align 8, !tbaa !4
  %19 = getelementptr inbounds nuw i8, ptr %0, i64 72
  %20 = load ptr, ptr %19, align 8, !tbaa !4
  %21 = getelementptr inbounds nuw i8, ptr %0, i64 80
  %22 = load ptr, ptr %21, align 8, !tbaa !4
  %23 = getelementptr inbounds nuw i8, ptr %0, i64 88
  %24 = load ptr, ptr %23, align 8, !tbaa !4
  %25 = getelementptr inbounds nuw i8, ptr %0, i64 96
  %26 = load ptr, ptr %25, align 8, !tbaa !4
  %27 = getelementptr inbounds nuw i8, ptr %0, i64 104
  %28 = load ptr, ptr %27, align 8, !tbaa !4
  %29 = getelementptr inbounds nuw i8, ptr %0, i64 112
  %30 = load ptr, ptr %29, align 8, !tbaa !4
  %31 = getelementptr inbounds nuw i8, ptr %0, i64 120
  %32 = load ptr, ptr %31, align 8, !tbaa !4
  %33 = getelementptr inbounds nuw i8, ptr %0, i64 128
  %34 = load ptr, ptr %33, align 8, !tbaa !4
  %35 = getelementptr inbounds nuw i8, ptr %0, i64 136
  %36 = load ptr, ptr %35, align 8, !tbaa !4
  %37 = getelementptr inbounds nuw i8, ptr %0, i64 144
  %38 = load ptr, ptr %37, align 8, !tbaa !4
  %39 = getelementptr inbounds nuw i8, ptr %0, i64 152
  %40 = load ptr, ptr %39, align 8, !tbaa !4
  %41 = getelementptr inbounds nuw i8, ptr %0, i64 160
  %42 = load ptr, ptr %41, align 8, !tbaa !4
  %43 = getelementptr inbounds nuw i8, ptr %0, i64 168
  %44 = load ptr, ptr %43, align 8, !tbaa !4
  %45 = ptrtoint ptr %28 to i64
  %46 = lshr i64 %45, 1
  %47 = trunc i64 %46 to i8
  %48 = and i64 %45, 1
  %.not = icmp eq i64 %48, 0
  br i1 %.not, label %49, label %lean_dec.exit59

49:                                               ; preds = %1
  %50 = load i32, ptr %28, align 4, !tbaa !9
  %51 = icmp sgt i32 %50, 1
  br i1 %51, label %52, label %54, !prof !12

52:                                               ; preds = %49
  %53 = add nsw i32 %50, -1
  store i32 %53, ptr %28, align 4, !tbaa !9
  br label %lean_dec.exit59

54:                                               ; preds = %49
  %.not.i = icmp eq i32 %50, 0
  br i1 %.not.i, label %lean_dec.exit59, label %55

55:                                               ; preds = %54
  tail call void @lean_dec_ref_cold(ptr noundef nonnull %28) #5
  br label %lean_dec.exit59

lean_dec.exit59:                                  ; preds = %55, %54, %52, %1
  %56 = tail call ptr @l_Std_Range_forIn_x27_loop___at_Lean_Elab_Deriving_BEq_mkMatch_mkAlts___spec__6___lambda__1(ptr noundef %2, ptr noundef %4, ptr noundef %6, ptr noundef %8, ptr noundef %10, ptr noundef %12, ptr noundef %14, ptr noundef %16, ptr noundef %18, ptr noundef %20, ptr noundef %22, ptr noundef %24, ptr noundef %26, i8 noundef zeroext %47, ptr poison, ptr poison, ptr poison, ptr noundef %36, ptr noundef %38, ptr noundef %40, ptr noundef %42, ptr noundef %44)
  %57 = ptrtoint ptr %34 to i64
  %58 = and i64 %57, 1
  %.not74 = icmp eq i64 %58, 0
  br i1 %.not74, label %59, label %lean_dec.exit58

59:                                               ; preds = %lean_dec.exit59
  %60 = load i32, ptr %34, align 4, !tbaa !9
  %61 = icmp sgt i32 %60, 1
  br i1 %61, label %62, label %64, !prof !12

62:                                               ; preds = %59
  %63 = add nsw i32 %60, -1
  store i32 %63, ptr %34, align 4, !tbaa !9
  br label %lean_dec.exit58

64:                                               ; preds = %59
  %.not.i60 = icmp eq i32 %60, 0
  br i1 %.not.i60, label %lean_dec.exit58, label %65

65:                                               ; preds = %64
  tail call void @lean_dec_ref_cold(ptr noundef nonnull %34) #5
  br label %lean_dec.exit58

lean_dec.exit58:                                  ; preds = %65, %64, %62, %lean_dec.exit59
  %66 = ptrtoint ptr %32 to i64
  %67 = and i64 %66, 1
  %.not75 = icmp eq i64 %67, 0
  br i1 %.not75, label %68, label %lean_dec.exit57

68:                                               ; preds = %lean_dec.exit58
  %69 = load i32, ptr %32, align 4, !tbaa !9
  %70 = icmp sgt i32 %69, 1
  br i1 %70, label %71, label %73, !prof !12

71:                                               ; preds = %68
  %72 = add nsw i32 %69, -1
  store i32 %72, ptr %32, align 4, !tbaa !9
  br label %lean_dec.exit57

73:                                               ; preds = %68
  %.not.i62 = icmp eq i32 %69, 0
  br i1 %.not.i62, label %lean_dec.exit57, label %74

74:                                               ; preds = %73
  tail call void @lean_dec_ref_cold(ptr noundef nonnull %32) #5
  br label %lean_dec.exit57

lean_dec.exit57:                                  ; preds = %74, %73, %71, %lean_dec.exit58
  %75 = ptrtoint ptr %30 to i64
  %76 = and i64 %75, 1
  %.not76 = icmp eq i64 %76, 0
  br i1 %.not76, label %77, label %lean_dec.exit56

77:                                               ; preds = %lean_dec.exit57
  %78 = load i32, ptr %30, align 4, !tbaa !9
  %79 = icmp sgt i32 %78, 1
  br i1 %79, label %80, label %82, !prof !12

80:                                               ; preds = %77
  %81 = add nsw i32 %78, -1
  store i32 %81, ptr %30, align 4, !tbaa !9
  br label %lean_dec.exit56

82:                                               ; preds = %77
  %.not.i64 = icmp eq i32 %78, 0
  br i1 %.not.i64, label %lean_dec.exit56, label %83

83:                                               ; preds = %82
  tail call void @lean_dec_ref_cold(ptr noundef nonnull %30) #5
  br label %lean_dec.exit56

lean_dec.exit56:                                  ; preds = %83, %82, %80, %lean_dec.exit57
  %84 = ptrtoint ptr %22 to i64
  %85 = and i64 %84, 1
  %.not77 = icmp eq i64 %85, 0
  br i1 %.not77, label %86, label %lean_dec.exit55

86:                                               ; preds = %lean_dec.exit56
  %87 = load i32, ptr %22, align 4, !tbaa !9
  %88 = icmp sgt i32 %87, 1
  br i1 %88, label %89, label %91, !prof !12

89:                                               ; preds = %86
  %90 = add nsw i32 %87, -1
  store i32 %90, ptr %22, align 4, !tbaa !9
  br label %lean_dec.exit55

91:                                               ; preds = %86
  %.not.i66 = icmp eq i32 %87, 0
  br i1 %.not.i66, label %lean_dec.exit55, label %92

92:                                               ; preds = %91
  tail call void @lean_dec_ref_cold(ptr noundef nonnull %22) #5
  br label %lean_dec.exit55

lean_dec.exit55:                                  ; preds = %92, %91, %89, %lean_dec.exit56
  %93 = ptrtoint ptr %8 to i64
  %94 = and i64 %93, 1
  %.not78 = icmp eq i64 %94, 0
  br i1 %.not78, label %95, label %lean_dec.exit54

95:                                               ; preds = %lean_dec.exit55
  %96 = load i32, ptr %8, align 4, !tbaa !9
  %97 = icmp sgt i32 %96, 1
  br i1 %97, label %98, label %100, !prof !12

98:                                               ; preds = %95
  %99 = add nsw i32 %96, -1
  store i32 %99, ptr %8, align 4, !tbaa !9
  br label %lean_dec.exit54

100:                                              ; preds = %95
  %.not.i68 = icmp eq i32 %96, 0
  br i1 %.not.i68, label %lean_dec.exit54, label %101

101:                                              ; preds = %100
  tail call void @lean_dec_ref_cold(ptr noundef nonnull %8) #5
  br label %lean_dec.exit54

lean_dec.exit54:                                  ; preds = %101, %100, %98, %lean_dec.exit55
  %102 = ptrtoint ptr %4 to i64
  %103 = and i64 %102, 1
  %.not79 = icmp eq i64 %103, 0
  br i1 %.not79, label %104, label %lean_dec.exit53

104:                                              ; preds = %lean_dec.exit54
  %105 = load i32, ptr %4, align 4, !tbaa !9
  %106 = icmp sgt i32 %105, 1
  br i1 %106, label %107, label %109, !prof !12

107:                                              ; preds = %104
  %108 = add nsw i32 %105, -1
  store i32 %108, ptr %4, align 4, !tbaa !9
  br label %lean_dec.exit53

109:                                              ; preds = %104
  %.not.i70 = icmp eq i32 %105, 0
  br i1 %.not.i70, label %lean_dec.exit53, label %110

110:                                              ; preds = %109
  tail call void @lean_dec_ref_cold(ptr noundef nonnull %4) #5
  br label %lean_dec.exit53

lean_dec.exit53:                                  ; preds = %110, %109, %107, %lean_dec.exit54
  %111 = ptrtoint ptr %2 to i64
  %112 = and i64 %111, 1
  %.not80 = icmp eq i64 %112, 0
  br i1 %.not80, label %113, label %lean_dec.exit

113:                                              ; preds = %lean_dec.exit53
  %114 = load i32, ptr %2, align 4, !tbaa !9
  %115 = icmp sgt i32 %114, 1
  br i1 %115, label %116, label %118, !prof !12

116:                                              ; preds = %113
  %117 = add nsw i32 %114, -1
  store i32 %117, ptr %2, align 4, !tbaa !9
  br label %lean_dec.exit

118:                                              ; preds = %113
  %.not.i72 = icmp eq i32 %114, 0
  br i1 %.not.i72, label %lean_dec.exit, label %119

119:                                              ; preds = %118
  tail call void @lean_dec_ref_cold(ptr noundef nonnull %2) #5
  br label %lean_dec.exit

lean_dec.exit:                                    ; preds = %119, %118, %116, %lean_dec.exit53
  ret ptr %56
}